; ModuleID = '7/670.c'
source_filename = "7/670.c"
target datalayout = "e-m:e-p270:32:32-p271:32:32-p272:64:64-i64:64-f80:128-n8:16:32:64-S128"
target triple = "x86_64-pc-linux-gnu"

; Function Attrs: noinline nounwind uwtable
define dso_local i32 @main() #0 {
  %1 = alloca i32, align 4
  %2 = alloca [100 x i8], align 16
  %3 = alloca [100 x i8], align 16
  %4 = alloca [100 x i8], align 16
  %5 = alloca [100 x i8], align 16
  %6 = alloca [200 x i8], align 16
  %7 = alloca i32, align 4
  %8 = alloca i32, align 4
  %9 = alloca i32, align 4
  %10 = alloca i32, align 4
  %11 = alloca i32, align 4
  %12 = alloca i32, align 4
  %13 = alloca i32, align 4
  store i32 0, i32* %1, align 4
  %14 = getelementptr inbounds [100 x i8], [100 x i8]* %2, i64 0, i64 0
  %15 = call i32 (i8*, ...) bitcast (i32 (...)* @gets to i32 (i8*, ...)*)(i8* %14)
  %16 = getelementptr inbounds [100 x i8], [100 x i8]* %3, i64 0, i64 0
  %17 = call i32 (i8*, ...) bitcast (i32 (...)* @gets to i32 (i8*, ...)*)(i8* %16)
  %18 = getelementptr inbounds [100 x i8], [100 x i8]* %4, i64 0, i64 0
  %19 = call i32 (i8*, ...) bitcast (i32 (...)* @gets to i32 (i8*, ...)*)(i8* %18)
  store i32 200, i32* %13, align 4
  %20 = getelementptr inbounds [100 x i8], [100 x i8]* %2, i64 0, i64 0
  %21 = call i64 @strlen(i8* %20) #3
  %22 = trunc i64 %21 to i32
  store i32 %22, i32* %12, align 4
  %23 = getelementptr inbounds [100 x i8], [100 x i8]* %3, i64 0, i64 0
  %24 = call i64 @strlen(i8* %23) #3
  %25 = trunc i64 %24 to i32
  store i32 %25, i32* %10, align 4
  %26 = getelementptr inbounds [100 x i8], [100 x i8]* %4, i64 0, i64 0
  %27 = call i64 @strlen(i8* %26) #3
  %28 = trunc i64 %27 to i32
  store i32 %28, i32* %11, align 4
  store i32 0, i32* %7, align 4
  br label %29

29:                                               ; preds = %65, %0
  %30 = load i32, i32* %7, align 4
  %31 = load i32, i32* %12, align 4
  %32 = icmp slt i32 %30, %31
  br i1 %32, label %33, label %68

33:                                               ; preds = %29
  store i32 0, i32* %9, align 4
  %34 = load i32, i32* %7, align 4
  store i32 %34, i32* %8, align 4
  br label %35

35:                                               ; preds = %51, %33
  %36 = load i32, i32* %8, align 4
  %37 = load i32, i32* %10, align 4
  %38 = load i32, i32* %7, align 4
  %39 = add nsw i32 %37, %38
  %40 = icmp slt i32 %36, %39
  br i1 %40, label %41, label %54

41:                                               ; preds = %35
  %42 = load i32, i32* %8, align 4
  %43 = sext i32 %42 to i64
  %44 = getelementptr inbounds [100 x i8], [100 x i8]* %2, i64 0, i64 %43
  %45 = load i8, i8* %44, align 1
  %46 = load i32, i32* %9, align 4
  %47 = sext i32 %46 to i64
  %48 = getelementptr inbounds [100 x i8], [100 x i8]* %5, i64 0, i64 %47
  store i8 %45, i8* %48, align 1
  %49 = load i32, i32* %9, align 4
  %50 = add nsw i32 %49, 1
  store i32 %50, i32* %9, align 4
  br label %51

51:                                               ; preds = %41
  %52 = load i32, i32* %8, align 4
  %53 = add nsw i32 %52, 1
  store i32 %53, i32* %8, align 4
  br label %35

54:                                               ; preds = %35
  %55 = load i32, i32* %9, align 4
  %56 = sext i32 %55 to i64
  %57 = getelementptr inbounds [100 x i8], [100 x i8]* %5, i64 0, i64 %56
  store i8 0, i8* %57, align 1
  %58 = getelementptr inbounds [100 x i8], [100 x i8]* %5, i64 0, i64 0
  %59 = getelementptr inbounds [100 x i8], [100 x i8]* %3, i64 0, i64 0
  %60 = call i32 @strcmp(i8* %58, i8* %59) #3
  %61 = icmp eq i32 %60, 0
  br i1 %61, label %62, label %64

62:                                               ; preds = %54
  %63 = load i32, i32* %7, align 4
  store i32 %63, i32* %13, align 4
  br label %68

64:                                               ; preds = %54
  br label %65

65:                                               ; preds = %64
  %66 = load i32, i32* %7, align 4
  %67 = add nsw i32 %66, 1
  store i32 %67, i32* %7, align 4
  br label %29

68:                                               ; preds = %62, %29
  %69 = load i32, i32* %13, align 4
  %70 = icmp slt i32 %69, 200
  br i1 %70, label %71, label %145

71:                                               ; preds = %68
  store i32 0, i32* %7, align 4
  br label %72

72:                                               ; preds = %84, %71
  %73 = load i32, i32* %7, align 4
  %74 = load i32, i32* %13, align 4
  %75 = icmp slt i32 %73, %74
  br i1 %75, label %76, label %87

76:                                               ; preds = %72
  %77 = load i32, i32* %7, align 4
  %78 = sext i32 %77 to i64
  %79 = getelementptr inbounds [100 x i8], [100 x i8]* %2, i64 0, i64 %78
  %80 = load i8, i8* %79, align 1
  %81 = load i32, i32* %7, align 4
  %82 = sext i32 %81 to i64
  %83 = getelementptr inbounds [200 x i8], [200 x i8]* %6, i64 0, i64 %82
  store i8 %80, i8* %83, align 1
  br label %84

84:                                               ; preds = %76
  %85 = load i32, i32* %7, align 4
  %86 = add nsw i32 %85, 1
  store i32 %86, i32* %7, align 4
  br label %72

87:                                               ; preds = %72
  %88 = load i32, i32* %13, align 4
  store i32 %88, i32* %7, align 4
  br label %89

89:                                               ; preds = %105, %87
  %90 = load i32, i32* %7, align 4
  %91 = load i32, i32* %13, align 4
  %92 = load i32, i32* %11, align 4
  %93 = add nsw i32 %91, %92
  %94 = icmp slt i32 %90, %93
  br i1 %94, label %95, label %108

95:                                               ; preds = %89
  %96 = load i32, i32* %7, align 4
  %97 = load i32, i32* %13, align 4
  %98 = sub nsw i32 %96, %97
  %99 = sext i32 %98 to i64
  %100 = getelementptr inbounds [100 x i8], [100 x i8]* %4, i64 0, i64 %99
  %101 = load i8, i8* %100, align 1
  %102 = load i32, i32* %7, align 4
  %103 = sext i32 %102 to i64
  %104 = getelementptr inbounds [200 x i8], [200 x i8]* %6, i64 0, i64 %103
  store i8 %101, i8* %104, align 1
  br label %105

105:                                              ; preds = %95
  %106 = load i32, i32* %7, align 4
  %107 = add nsw i32 %106, 1
  store i32 %107, i32* %7, align 4
  br label %89

108:                                              ; preds = %89
  %109 = load i32, i32* %13, align 4
  %110 = load i32, i32* %11, align 4
  %111 = add nsw i32 %109, %110
  store i32 %111, i32* %7, align 4
  br label %112

112:                                              ; preds = %132, %108
  %113 = load i32, i32* %7, align 4
  %114 = load i32, i32* %12, align 4
  %115 = load i32, i32* %11, align 4
  %116 = add nsw i32 %114, %115
  %117 = load i32, i32* %10, align 4
  %118 = sub nsw i32 %116, %117
  %119 = icmp slt i32 %113, %118
  br i1 %119, label %120, label %135

120:                                              ; preds = %112
  %121 = load i32, i32* %7, align 4
  %122 = load i32, i32* %11, align 4
  %123 = sub nsw i32 %121, %122
  %124 = load i32, i32* %10, align 4
  %125 = add nsw i32 %123, %124
  %126 = sext i32 %125 to i64
  %127 = getelementptr inbounds [100 x i8], [100 x i8]* %2, i64 0, i64 %126
  %128 = load i8, i8* %127, align 1
  %129 = load i32, i32* %7, align 4
  %130 = sext i32 %129 to i64
  %131 = getelementptr inbounds [200 x i8], [200 x i8]* %6, i64 0, i64 %130
  store i8 %128, i8* %131, align 1
  br label %132

132:                                              ; preds = %120
  %133 = load i32, i32* %7, align 4
  %134 = add nsw i32 %133, 1
  store i32 %134, i32* %7, align 4
  br label %112

135:                                              ; preds = %112
  %136 = load i32, i32* %12, align 4
  %137 = load i32, i32* %11, align 4
  %138 = add nsw i32 %136, %137
  %139 = load i32, i32* %10, align 4
  %140 = sub nsw i32 %138, %139
  %141 = sext i32 %140 to i64
  %142 = getelementptr inbounds [200 x i8], [200 x i8]* %6, i64 0, i64 %141
  store i8 0, i8* %142, align 1
  %143 = getelementptr inbounds [200 x i8], [200 x i8]* %6, i64 0, i64 0
  %144 = call i32 @puts(i8* %143)
  br label %145

145:                                              ; preds = %135, %68
  %146 = load i32, i32* %13, align 4
  %147 = icmp eq i32 %146, 200
  br i1 %147, label %148, label %151

148:                                              ; preds = %145
  %149 = getelementptr inbounds [100 x i8], [100 x i8]* %2, i64 0, i64 0
  %150 = call i32 @puts(i8* %149)
  br label %151

151:                                              ; preds = %148, %145
  ret i32 0
}

declare dso_local i32 @gets(...) #1

; Function Attrs: nounwind readonly
declare dso_local i64 @strlen(i8*) #2

; Function Attrs: nounwind readonly
declare dso_local i32 @strcmp(i8*, i8*) #2

declare dso_local i32 @puts(i8*) #1


!llvm.module.flags = !{!0}
!llvm.ident = !{!1}

!0 = !{i32 1, !"wchar_size", i32 4}
!1 = !{!"clang version 10.0.0-4ubuntu1 "}
